; Function Attrs: nounwind uwtable
define internal range(i32 -1, 16) i32 @SDL_HIDAPI_HapticDriverLg4ff_CreateEffect(ptr noundef readonly captures(none) %0, ptr noundef readonly captures(none) %1) #0 {
  %3 = getelementptr inbounds nuw i8, ptr %0, i64 24
  %4 = load ptr, ptr %3, align 8
  %.val = load i16, ptr %1, align 8
  %5 = and i16 %.val, 1535
  %.not = icmp eq i16 %5, 0
  br i1 %.not, label %6, label %8

6:                                                ; preds = %2
  %7 = tail call zeroext i1 (ptr, ...) @SDL_SetError_REAL(ptr noundef nonnull @.str.7) #8
  br label %45

8:                                                ; preds = %2
  %9 = getelementptr inbounds nuw i8, ptr %4, i64 2944
  %10 = load ptr, ptr %9, align 8
  tail call void @SDL_LockMutex_REAL(ptr noundef %10) #8
  %invariant.gep = getelementptr inbounds nuw i8, ptr %4, i64 156
  br label %11

11:                                               ; preds = %8, %15
  %indvars.iv = phi i64 [ 0, %8 ], [ %indvars.iv.next, %15 ]
  %12 = mul nuw nsw i64 %indvars.iv, 152
  %gep = getelementptr inbounds nuw i8, ptr %invariant.gep, i64 %12
  %13 = load i8, ptr %gep, align 4, !range !7, !noundef !8
  %14 = trunc nuw i8 %13 to i1
  br i1 %14, label %15, label %19

15:                                               ; preds = %11
  %indvars.iv.next = add nuw nsw i64 %indvars.iv, 1
  %exitcond.not = icmp eq i64 %indvars.iv.next, 16
  br i1 %exitcond.not, label %16, label %11, !llvm.loop !9

16:                                               ; preds = %15
  %17 = load ptr, ptr %9, align 8
  tail call void @SDL_UnlockMutex_REAL(ptr noundef %17) #8
  %18 = tail call zeroext i1 (ptr, ...) @SDL_SetError_REAL(ptr noundef nonnull @.str.8) #8
  br label %45

19:                                               ; preds = %11
  %20 = trunc nuw nsw i64 %indvars.iv to i32
  %21 = tail call i64 @SDL_GetTicks_REAL() #8
  %.val.i = load i16, ptr %1, align 8
  switch i16 %.val.i, label %effect_is_periodic.exit.i [
    i16 2, label %22
    i16 8, label %22
    i16 16, label %22
    i16 32, label %22
    i16 4, label %22
  ]

22:                                               ; preds = %19, %19, %19, %19, %19
  %23 = getelementptr inbounds nuw i8, ptr %1, i64 30
  %24 = load i16, ptr %23, align 2
  %25 = icmp eq i16 %24, 0
  br i1 %25, label %42, label %effect_is_periodic.exit.i

effect_is_periodic.exit.i:                        ; preds = %22, %19
  %26 = getelementptr inbounds nuw i8, ptr %4, i64 8
  %27 = and i64 %indvars.iv, 4294967295
  %28 = getelementptr inbounds nuw [16 x %struct.lg4ff_effect_state], ptr %26, i64 0, i64 %27
  %29 = getelementptr inbounds nuw i8, ptr %28, i64 96
  %30 = load i32, ptr %29, align 8
  %31 = and i32 %30, 1
  %.not.i = icmp eq i32 %31, 0
  br i1 %.not.i, label %.thread.i, label %32

.thread.i:                                        ; preds = %effect_is_periodic.exit.i
  tail call void @llvm.memcpy.p0.p0.i64(ptr noundef nonnull align 8 dereferenceable(72) %28, ptr noundef nonnull readonly align 8 dereferenceable(72) %1, i64 72, i1 false)
  br label %37

32:                                               ; preds = %effect_is_periodic.exit.i
  %33 = load i16, ptr %28, align 8
  %.not14.i = icmp eq i16 %.val.i, %33
  br i1 %.not14.i, label %34, label %42

34:                                               ; preds = %32
  tail call void @llvm.memcpy.p0.p0.i64(ptr noundef nonnull align 8 dereferenceable(72) %28, ptr noundef nonnull readonly align 8 dereferenceable(72) %1, i64 72, i1 false)
  %35 = or i32 %30, 8
  store i32 %35, ptr %29, align 8
  %36 = getelementptr inbounds nuw i8, ptr %28, i64 112
  store i64 %21, ptr %36, align 8
  br label %37

37:                                               ; preds = %34, %.thread.i
  %38 = load ptr, ptr %9, align 8
  tail call void @SDL_UnlockMutex_REAL(ptr noundef %38) #8
  %narrow22 = mul i64 %indvars.iv, 152
  %39 = and i64 %narrow22, 4294967288
  %40 = getelementptr i8, ptr %26, i64 %39
  %41 = getelementptr i8, ptr %40, i64 148
  store i8 1, ptr %41, align 4
  br label %45

42:                                               ; preds = %32, %22
  %43 = load ptr, ptr %9, align 8
  tail call void @SDL_UnlockMutex_REAL(ptr noundef %43) #8
  %44 = tail call zeroext i1 (ptr, ...) @SDL_SetError_REAL(ptr noundef nonnull @.str.9) #8
  br label %45

45:                                               ; preds = %42, %37, %16, %6
  %.0 = phi i32 [ -1, %16 ], [ %20, %37 ], [ -1, %42 ], [ -1, %6 ]
  ret i32 %.0
}